; Function Attrs: mustprogress uwtable
define void @_ZN10PacketList25columnVisibilityTriggeredEv(ptr noundef nonnull align 8 dereferenceable(464) %0) local_unnamed_addr #0 align 2 personality ptr @__gxx_personality_v0 {
  %2 = alloca %class.QVariant, align 8
  %3 = tail call noundef ptr @_ZNK7QObject6senderEv(ptr noundef nonnull align 8 dereferenceable(16) %0)
  %4 = tail call noundef ptr @_ZNK11QMetaObject4castEPK7QObject(ptr noundef nonnull align 8 dereferenceable(56) @_ZN7QAction16staticMetaObjectE, ptr noundef %3)
  %.not = icmp eq ptr %4, null
  br i1 %.not, label %22, label %5

5:                                                ; preds = %1
  call void @_ZNK7QAction4dataEv(ptr dead_on_unwind nonnull writable sret(%class.QVariant) align 8 %2, ptr noundef nonnull align 8 dereferenceable(16) %4)
  %6 = invoke noundef i32 @_ZNK8QVariant5toIntEPb(ptr noundef nonnull align 8 dereferenceable(32) %2, ptr noundef null)
          to label %7 unwind label %19

7:                                                ; preds = %5
  call void @_ZN8QVariantD1Ev(ptr noundef nonnull align 8 dereferenceable(32) %2) #20
  %8 = call noundef zeroext i1 @_ZNK7QAction9isCheckedEv(ptr noundef nonnull align 8 dereferenceable(16) %4)
  %9 = zext i1 %8 to i32
  call void @set_column_visible(i32 noundef %6, i32 noundef %9)
  %10 = getelementptr inbounds i8, ptr %0, i64 371
  store i8 1, ptr %10, align 1
  %11 = load i32, ptr getelementptr inbounds (%struct._e_prefs, ptr @prefs, i64 0, i32 1), align 8
  %12 = icmp sgt i32 %11, 0
  br i1 %12, label %.lr.ph.i, label %_ZN10PacketList19setColumnVisibilityEv.exit

.lr.ph.i:                                         ; preds = %7, %.lr.ph.i
  %.04.i = phi i32 [ %14, %.lr.ph.i ], [ 0, %7 ]
  %13 = call i32 @get_column_visible(i32 noundef %.04.i)
  %.not.i = icmp eq i32 %13, 0
  call void @_ZN9QTreeView15setColumnHiddenEib(ptr noundef nonnull align 8 dereferenceable(40) %0, i32 noundef %.04.i, i1 noundef zeroext %.not.i)
  %14 = add nuw nsw i32 %.04.i, 1
  %15 = load i32, ptr getelementptr inbounds (%struct._e_prefs, ptr @prefs, i64 0, i32 1), align 8
  %16 = icmp slt i32 %14, %15
  br i1 %16, label %.lr.ph.i, label %_ZN10PacketList19setColumnVisibilityEv.exit, !llvm.loop !4

_ZN10PacketList19setColumnVisibilityEv.exit:      ; preds = %.lr.ph.i, %7
  store i8 0, ptr %10, align 1
  %17 = call noundef zeroext i1 @_ZNK7QAction9isCheckedEv(ptr noundef nonnull align 8 dereferenceable(16) %4)
  br i1 %17, label %18, label %21

18:                                               ; preds = %_ZN10PacketList19setColumnVisibilityEv.exit
  call void @_ZN10PacketList20setRecentColumnWidthEi(ptr noundef nonnull align 8 dereferenceable(464) %0, i32 noundef %6)
  br label %21

19:                                               ; preds = %5
  %20 = landingpad { ptr, i32 }
          cleanup
  call void @_ZN8QVariantD1Ev(ptr noundef nonnull align 8 dereferenceable(32) %2) #20
  resume { ptr, i32 } %20

21:                                               ; preds = %18, %_ZN10PacketList19setColumnVisibilityEv.exit
  call void @prefs_main_write()
  br label %22

22:                                               ; preds = %1, %21
  ret void
}